target datalayout = "e-m:e-p270:32:32-p271:32:32-p272:64:64-i64:64-i128:128-f80:128-n8:16:32:64-S128"
target triple = "x86_64-pc-linux-gnu"

@XLogArchiveLibrary = dso_local global ptr @.str, align 8
@ProcSignalBarrierPending = external global i32, align 4
@LogMemoryContextPending = external global i32, align 4
@ConfigReloadPending = external global i32, align 4
@XLogArchiveCommand = external global ptr, align 8
@.str.3 = private unnamed_addr constant [49 x i8] c"both \22archive_command\22 and \22archive_library\22 set\00", align 1
@.str.4 = private unnamed_addr constant [61 x i8] c"Only one of \22archive_command\22, \22archive_library\22 may be set.\00", align 1
@.str.5 = private unnamed_addr constant [9 x i8] c"pgarch.c\00", align 1
@__func__.HandlePgArchInterrupts = private unnamed_addr constant [23 x i8] c"HandlePgArchInterrupts\00", align 1
@.str.6 = private unnamed_addr constant [75 x i8] c"restarting archiver process because value of \22archive_library\22 was changed\00", align 1

; Function Attrs: nounwind uwtable
define internal void @HandlePgArchInterrupts() #0 {
  %1 = alloca ptr, align 8
  %2 = alloca i8, align 1
  %3 = load volatile i32, ptr @ProcSignalBarrierPending, align 4
  %4 = icmp ne i32 %3, 0
  br i1 %4, label %5, label %6

5:                                                ; preds = %0
  call void @ProcessProcSignalBarrier()
  br label %6

6:                                                ; preds = %5, %0
  %7 = load volatile i32, ptr @LogMemoryContextPending, align 4
  %8 = icmp ne i32 %7, 0
  br i1 %8, label %9, label %10

9:                                                ; preds = %6
  call void @ProcessLogMemoryContextInterrupt()
  br label %10

10:                                               ; preds = %9, %6
  %11 = load volatile i32, ptr @ConfigReloadPending, align 4
  %12 = icmp ne i32 %11, 0
  br i1 %12, label %13, label %61

13:                                               ; preds = %10
  call void @llvm.lifetime.start.p0(i64 8, ptr %1) #14
  %14 = load ptr, ptr @XLogArchiveLibrary, align 8
  %15 = call ptr @pstrdup(ptr noundef %14)
  store ptr %15, ptr %1, align 8
  call void @llvm.lifetime.start.p0(i64 1, ptr %2) #14
  store volatile i32 0, ptr @ConfigReloadPending, align 4
  call void @ProcessConfigFile(i32 noundef 2)
  %16 = load ptr, ptr @XLogArchiveLibrary, align 8
  %17 = getelementptr inbounds i8, ptr %16, i64 0
  %18 = load i8, ptr %17, align 1
  %19 = sext i8 %18 to i32
  %20 = icmp ne i32 %19, 0
  br i1 %20, label %21, label %40

21:                                               ; preds = %13
  %22 = load ptr, ptr @XLogArchiveCommand, align 8
  %23 = getelementptr inbounds i8, ptr %22, i64 0
  %24 = load i8, ptr %23, align 1
  %25 = sext i8 %24 to i32
  %26 = icmp ne i32 %25, 0
  br i1 %26, label %27, label %40

27:                                               ; preds = %21
  br label %28

28:                                               ; preds = %27
  br i1 true, label %29, label %31

29:                                               ; preds = %28
  %30 = call zeroext i1 @errstart_cold(i32 noundef 21, ptr noundef null) #17
  br i1 %30, label %33, label %37

31:                                               ; preds = %28
  %32 = call zeroext i1 @errstart(i32 noundef 21, ptr noundef null)
  br i1 %32, label %33, label %37

33:                                               ; preds = %31, %29
  %34 = call i32 @errcode(i32 noundef 50856066)
  %35 = call i32 (ptr, ...) @errmsg(ptr noundef @.str.3)
  %36 = call i32 (ptr, ...) @errdetail(ptr noundef @.str.4)
  call void @errfinish(ptr noundef @.str.5, i32 noundef 880, ptr noundef @__func__.HandlePgArchInterrupts)
  br label %37

37:                                               ; preds = %33, %31, %29
  unreachable

38:                                               ; No predecessors!
  br label %39

39:                                               ; preds = %38
  br label %40

40:                                               ; preds = %39, %21, %13
  %41 = load ptr, ptr @XLogArchiveLibrary, align 8
  %42 = load ptr, ptr %1, align 8
  %43 = call i32 @strcmp(ptr noundef %41, ptr noundef %42) #16
  %44 = icmp ne i32 %43, 0
  %45 = zext i1 %44 to i8
  store i8 %45, ptr %2, align 1
  %46 = load ptr, ptr %1, align 8
  call void @pfree(ptr noundef %46)
  %47 = load i8, ptr %2, align 1, !range !4, !noundef !5
  %48 = trunc i8 %47 to i1
  br i1 %48, label %49, label %60

49:                                               ; preds = %40
  br label %50

50:                                               ; preds = %49
  br i1 false, label %51, label %53

51:                                               ; preds = %50
  %52 = call zeroext i1 @errstart_cold(i32 noundef 15, ptr noundef null) #17
  br i1 %52, label %55, label %57

53:                                               ; preds = %50
  %54 = call zeroext i1 @errstart(i32 noundef 15, ptr noundef null)
  br i1 %54, label %55, label %57

55:                                               ; preds = %53, %51
  %56 = call i32 (ptr, ...) @errmsg(ptr noundef @.str.6)
  call void @errfinish(ptr noundef @.str.5, i32 noundef 898, ptr noundef @__func__.HandlePgArchInterrupts)
  br label %57

57:                                               ; preds = %55, %53, %51
  br label %58

58:                                               ; preds = %57
  br label %59

59:                                               ; preds = %58
  call void @proc_exit(i32 noundef 0) #15
  unreachable

60:                                               ; preds = %40
  call void @llvm.lifetime.end.p0(i64 1, ptr %2) #14
  call void @llvm.lifetime.end.p0(i64 8, ptr %1) #14
  br label %61

61:                                               ; preds = %60, %10
  ret void
}