; Function Attrs: nounwind uwtable
define internal fastcc void @HandlePgArchInterrupts() unnamed_addr #0 {
  %1 = load volatile i32, ptr @ProcSignalBarrierPending, align 4
  %.not = icmp eq i32 %1, 0
  br i1 %.not, label %3, label %2

2:                                                ; preds = %0
  tail call void @ProcessProcSignalBarrier() #19
  br label %3

3:                                                ; preds = %2, %0
  %4 = load volatile i32, ptr @LogMemoryContextPending, align 4
  %.not2 = icmp eq i32 %4, 0
  br i1 %.not2, label %6, label %5

5:                                                ; preds = %3
  tail call void @ProcessLogMemoryContextInterrupt() #19
  br label %6

6:                                                ; preds = %5, %3
  %7 = load volatile i32, ptr @ConfigReloadPending, align 4
  %.not3 = icmp eq i32 %7, 0
  br i1 %.not3, label %28, label %8

8:                                                ; preds = %6
  %9 = load ptr, ptr @XLogArchiveLibrary, align 8
  %10 = tail call ptr @pstrdup(ptr noundef %9) #19
  store volatile i32 0, ptr @ConfigReloadPending, align 4
  tail call void @ProcessConfigFile(i32 noundef 2) #19
  %11 = load ptr, ptr @XLogArchiveLibrary, align 8
  %12 = load i8, ptr %11, align 1
  %.not4 = icmp eq i8 %12, 0
  br i1 %.not4, label %21, label %13

13:                                               ; preds = %8
  %14 = load ptr, ptr @XLogArchiveCommand, align 8
  %15 = load i8, ptr %14, align 1
  %.not5 = icmp eq i8 %15, 0
  br i1 %.not5, label %21, label %16

16:                                               ; preds = %13
  %17 = tail call zeroext i1 @errstart_cold(i32 noundef 21, ptr noundef null) #22
  tail call void @llvm.assume(i1 %17)
  %18 = tail call i32 @errcode(i32 noundef 50856066) #19
  %19 = tail call i32 (ptr, ...) @errmsg(ptr noundef nonnull @.str.3) #19
  %20 = tail call i32 (ptr, ...) @errdetail(ptr noundef nonnull @.str.4) #19
  tail call void @errfinish(ptr noundef nonnull @.str.5, i32 noundef 880, ptr noundef nonnull @__func__.HandlePgArchInterrupts) #19
  unreachable

21:                                               ; preds = %13, %8
  %22 = tail call i32 @strcmp(ptr noundef nonnull dereferenceable(1) %11, ptr noundef nonnull dereferenceable(1) %10) #21
  %.not6 = icmp eq i32 %22, 0
  tail call void @pfree(ptr noundef nonnull %10) #19
  br i1 %.not6, label %28, label %23

23:                                               ; preds = %21
  %24 = tail call zeroext i1 @errstart(i32 noundef 15, ptr noundef null) #19
  br i1 %24, label %25, label %27

25:                                               ; preds = %23
  %26 = tail call i32 (ptr, ...) @errmsg(ptr noundef nonnull @.str.6) #19
  tail call void @errfinish(ptr noundef nonnull @.str.5, i32 noundef 898, ptr noundef nonnull @__func__.HandlePgArchInterrupts) #19
  br label %27

27:                                               ; preds = %25, %23
  tail call void @proc_exit(i32 noundef 0) #20
  unreachable

28:                                               ; preds = %21, %6
  ret void
}